target datalayout = "e-m:e-p270:32:32-p271:32:32-p272:64:64-i64:64-i128:128-f80:128-n8:16:32:64-S128"
target triple = "x86_64-pc-linux-gnu"

%struct.Aes = type { [60 x i32], i32, i32, [8 x i8], [4 x i32], [4 x i32], [2 x i32], i32, [4 x i8], %struct.Gcm, ptr, [8 x i8] }
%struct.Gcm = type { [16 x i8], [32 x [16 x i8]] }

@devId = internal global i32 -2, align 4
@__const.aes192_test.msg = private unnamed_addr constant [16 x i8] c"k\C1\BE\E2.@\9F\96\E9=~\11s\93\17*", align 16
@__const.aes192_test.verify = private unnamed_addr constant [16 x i8] c"O\02\1D\B2C\BCc=qx\18:\9F\A0q\E8", align 16
@__const.aes192_test.key = private unnamed_addr constant [24 x i8] c"\8Es\B0\F7\DA\0EdR\C8\10\F3+\80\90y\E5b\F8\EA\D2R,k{", align 16
@__const.aes192_test.iv = private unnamed_addr constant [16 x i8] c"\00\01\02\03\04\05\06\07\08\09\0A\0B\0C\0D\0E\0F", align 16

; Function Attrs: nounwind uwtable
define dso_local i32 @aes192_test() #0 {
  %1 = alloca i32, align 4
  %2 = alloca [1 x %struct.Aes], align 16
  %3 = alloca [16 x i8], align 16
  %4 = alloca [1 x %struct.Aes], align 16
  %5 = alloca [16 x i8], align 16
  %6 = alloca [16 x i8], align 16
  %7 = alloca [16 x i8], align 16
  %8 = alloca [24 x i8], align 16
  %9 = alloca [16 x i8], align 16
  call void @llvm.lifetime.start.p0(i64 4, ptr %1) #10
  store i32 0, ptr %1, align 4, !tbaa !14
  call void @llvm.lifetime.start.p0(i64 848, ptr %2) #10
  call void @llvm.lifetime.start.p0(i64 16, ptr %3) #10
  call void @llvm.lifetime.start.p0(i64 848, ptr %4) #10
  call void @llvm.lifetime.start.p0(i64 16, ptr %5) #10
  call void @llvm.lifetime.start.p0(i64 16, ptr %6) #10
  call void @llvm.memcpy.p0.p0.i64(ptr align 16 %6, ptr align 16 @__const.aes192_test.msg, i64 16, i1 false)
  call void @llvm.lifetime.start.p0(i64 16, ptr %7) #10
  call void @llvm.memcpy.p0.p0.i64(ptr align 16 %7, ptr align 16 @__const.aes192_test.verify, i64 16, i1 false)
  call void @llvm.lifetime.start.p0(i64 24, ptr %8) #10
  call void @llvm.memcpy.p0.p0.i64(ptr align 16 %8, ptr align 16 @__const.aes192_test.key, i64 24, i1 false)
  call void @llvm.lifetime.start.p0(i64 16, ptr %9) #10
  call void @llvm.memcpy.p0.p0.i64(ptr align 16 %9, ptr align 16 @__const.aes192_test.iv, i64 16, i1 false)
  br label %10

10:                                               ; preds = %0
  br label %11

11:                                               ; preds = %10
  br label %12

12:                                               ; preds = %11
  %13 = getelementptr inbounds [1 x %struct.Aes], ptr %2, i64 0, i64 0
  call void @llvm.memset.p0.i64(ptr align 16 %13, i8 0, i64 848, i1 false)
  %14 = getelementptr inbounds [1 x %struct.Aes], ptr %4, i64 0, i64 0
  call void @llvm.memset.p0.i64(ptr align 16 %14, i8 0, i64 848, i1 false)
  %15 = getelementptr inbounds [1 x %struct.Aes], ptr %2, i64 0, i64 0
  %16 = load i32, ptr @devId, align 4, !tbaa !14
  %17 = call i32 @wc_AesInit(ptr noundef %15, ptr noundef null, i32 noundef %16)
  store i32 %17, ptr %1, align 4, !tbaa !14
  %18 = load i32, ptr %1, align 4, !tbaa !14
  %19 = icmp ne i32 %18, 0
  br i1 %19, label %20, label %35

20:                                               ; preds = %12
  br label %21

21:                                               ; preds = %20
  %22 = load i32, ptr %1, align 4, !tbaa !14
  %23 = sub nsw i32 0, %22
  %24 = zext i32 %23 to i64
  %25 = and i64 %24, 2047
  %26 = trunc i64 %25 to i32
  %27 = sext i32 %26 to i64
  %28 = mul nsw i64 %27, 100000
  %29 = add nsw i64 14718, %28
  %30 = add nsw i64 %29, 536870912
  %31 = sub nsw i64 0, %30
  %32 = trunc i64 %31 to i32
  store i32 %32, ptr %1, align 4, !tbaa !14
  br label %168

33:                                               ; No predecessors!
  br label %34

34:                                               ; preds = %33
  br label %35

35:                                               ; preds = %34, %12
  %36 = getelementptr inbounds [1 x %struct.Aes], ptr %4, i64 0, i64 0
  %37 = load i32, ptr @devId, align 4, !tbaa !14
  %38 = call i32 @wc_AesInit(ptr noundef %36, ptr noundef null, i32 noundef %37)
  store i32 %38, ptr %1, align 4, !tbaa !14
  %39 = load i32, ptr %1, align 4, !tbaa !14
  %40 = icmp ne i32 %39, 0
  br i1 %40, label %41, label %56

41:                                               ; preds = %35
  br label %42

42:                                               ; preds = %41
  %43 = load i32, ptr %1, align 4, !tbaa !14
  %44 = sub nsw i32 0, %43
  %45 = zext i32 %44 to i64
  %46 = and i64 %45, 2047
  %47 = trunc i64 %46 to i32
  %48 = sext i32 %47 to i64
  %49 = mul nsw i64 %48, 100000
  %50 = add nsw i64 14722, %49
  %51 = add nsw i64 %50, 536870912
  %52 = sub nsw i64 0, %51
  %53 = trunc i64 %52 to i32
  store i32 %53, ptr %1, align 4, !tbaa !14
  br label %168

54:                                               ; No predecessors!
  br label %55

55:                                               ; preds = %54
  br label %56

56:                                               ; preds = %55, %35
  %57 = getelementptr inbounds [1 x %struct.Aes], ptr %2, i64 0, i64 0
  %58 = getelementptr inbounds [24 x i8], ptr %8, i64 0, i64 0
  %59 = getelementptr inbounds [16 x i8], ptr %9, i64 0, i64 0
  %60 = call i32 @wc_AesSetKey(ptr noundef %57, ptr noundef %58, i32 noundef 24, ptr noundef %59, i32 noundef 0)
  store i32 %60, ptr %1, align 4, !tbaa !14
  %61 = load i32, ptr %1, align 4, !tbaa !14
  %62 = icmp ne i32 %61, 0
  br i1 %62, label %63, label %78

63:                                               ; preds = %56
  br label %64

64:                                               ; preds = %63
  %65 = load i32, ptr %1, align 4, !tbaa !14
  %66 = sub nsw i32 0, %65
  %67 = zext i32 %66 to i64
  %68 = and i64 %67, 2047
  %69 = trunc i64 %68 to i32
  %70 = sext i32 %69 to i64
  %71 = mul nsw i64 %70, 100000
  %72 = add nsw i64 14728, %71
  %73 = add nsw i64 %72, 536870912
  %74 = sub nsw i64 0, %73
  %75 = trunc i64 %74 to i32
  store i32 %75, ptr %1, align 4, !tbaa !14
  br label %168

76:                                               ; No predecessors!
  br label %77

77:                                               ; preds = %76
  br label %78

78:                                               ; preds = %77, %56
  %79 = getelementptr inbounds [1 x %struct.Aes], ptr %4, i64 0, i64 0
  %80 = getelementptr inbounds [24 x i8], ptr %8, i64 0, i64 0
  %81 = getelementptr inbounds [16 x i8], ptr %9, i64 0, i64 0
  %82 = call i32 @wc_AesSetKey(ptr noundef %79, ptr noundef %80, i32 noundef 24, ptr noundef %81, i32 noundef 1)
  store i32 %82, ptr %1, align 4, !tbaa !14
  %83 = load i32, ptr %1, align 4, !tbaa !14
  %84 = icmp ne i32 %83, 0
  br i1 %84, label %85, label %100

85:                                               ; preds = %78
  br label %86

86:                                               ; preds = %85
  %87 = load i32, ptr %1, align 4, !tbaa !14
  %88 = sub nsw i32 0, %87
  %89 = zext i32 %88 to i64
  %90 = and i64 %89, 2047
  %91 = trunc i64 %90 to i32
  %92 = sext i32 %91 to i64
  %93 = mul nsw i64 %92, 100000
  %94 = add nsw i64 14732, %93
  %95 = add nsw i64 %94, 536870912
  %96 = sub nsw i64 0, %95
  %97 = trunc i64 %96 to i32
  store i32 %97, ptr %1, align 4, !tbaa !14
  br label %168

98:                                               ; No predecessors!
  br label %99

99:                                               ; preds = %98
  br label %100

100:                                              ; preds = %99, %78
  %101 = getelementptr inbounds [16 x i8], ptr %3, i64 0, i64 0
  call void @llvm.memset.p0.i64(ptr align 16 %101, i8 0, i64 16, i1 false)
  %102 = getelementptr inbounds [1 x %struct.Aes], ptr %2, i64 0, i64 0
  %103 = getelementptr inbounds [16 x i8], ptr %3, i64 0, i64 0
  %104 = getelementptr inbounds [16 x i8], ptr %6, i64 0, i64 0
  %105 = call i32 @wc_AesCbcEncrypt(ptr noundef %102, ptr noundef %103, ptr noundef %104, i32 noundef 16)
  store i32 %105, ptr %1, align 4, !tbaa !14
  %106 = load i32, ptr %1, align 4, !tbaa !14
  %107 = icmp ne i32 %106, 0
  br i1 %107, label %108, label %123

108:                                              ; preds = %100
  br label %109

109:                                              ; preds = %108
  %110 = load i32, ptr %1, align 4, !tbaa !14
  %111 = sub nsw i32 0, %110
  %112 = zext i32 %111 to i64
  %113 = and i64 %112, 2047
  %114 = trunc i64 %113 to i32
  %115 = sext i32 %114 to i64
  %116 = mul nsw i64 %115, 100000
  %117 = add nsw i64 14741, %116
  %118 = add nsw i64 %117, 536870912
  %119 = sub nsw i64 0, %118
  %120 = trunc i64 %119 to i32
  store i32 %120, ptr %1, align 4, !tbaa !14
  br label %168

121:                                              ; No predecessors!
  br label %122

122:                                              ; preds = %121
  br label %123

123:                                              ; preds = %122, %100
  %124 = getelementptr inbounds [16 x i8], ptr %3, i64 0, i64 0
  %125 = getelementptr inbounds [16 x i8], ptr %7, i64 0, i64 0
  %126 = call i32 @memcmp(ptr noundef %124, ptr noundef %125, i64 noundef 16) #11
  %127 = icmp ne i32 %126, 0
  br i1 %127, label %128, label %132

128:                                              ; preds = %123
  br label %129

129:                                              ; preds = %128
  store i32 -14743, ptr %1, align 4, !tbaa !14
  br label %168

130:                                              ; No predecessors!
  br label %131

131:                                              ; preds = %130
  br label %132

132:                                              ; preds = %131, %123
  %133 = getelementptr inbounds [16 x i8], ptr %5, i64 0, i64 0
  call void @llvm.memset.p0.i64(ptr align 16 %133, i8 0, i64 16, i1 false)
  %134 = getelementptr inbounds [1 x %struct.Aes], ptr %4, i64 0, i64 0
  %135 = getelementptr inbounds [16 x i8], ptr %5, i64 0, i64 0
  %136 = getelementptr inbounds [16 x i8], ptr %3, i64 0, i64 0
  %137 = call i32 @wc_AesCbcDecrypt(ptr noundef %134, ptr noundef %135, ptr noundef %136, i32 noundef 16)
  store i32 %137, ptr %1, align 4, !tbaa !14
  %138 = load i32, ptr %1, align 4, !tbaa !14
  %139 = icmp ne i32 %138, 0
  br i1 %139, label %140, label %155

140:                                              ; preds = %132
  br label %141

141:                                              ; preds = %140
  %142 = load i32, ptr %1, align 4, !tbaa !14
  %143 = sub nsw i32 0, %142
  %144 = zext i32 %143 to i64
  %145 = and i64 %144, 2047
  %146 = trunc i64 %145 to i32
  %147 = sext i32 %146 to i64
  %148 = mul nsw i64 %147, 100000
  %149 = add nsw i64 14752, %148
  %150 = add nsw i64 %149, 536870912
  %151 = sub nsw i64 0, %150
  %152 = trunc i64 %151 to i32
  store i32 %152, ptr %1, align 4, !tbaa !14
  br label %168

153:                                              ; No predecessors!
  br label %154

154:                                              ; preds = %153
  br label %155

155:                                              ; preds = %154, %132
  %156 = getelementptr inbounds [16 x i8], ptr %5, i64 0, i64 0
  %157 = getelementptr inbounds [16 x i8], ptr %6, i64 0, i64 0
  %158 = call i32 @memcmp(ptr noundef %156, ptr noundef %157, i64 noundef 16) #11
  %159 = icmp ne i32 %158, 0
  br i1 %159, label %160, label %167

160:                                              ; preds = %155
  br label %161

161:                                              ; preds = %160
  br label %162

162:                                              ; preds = %161
  br label %163

163:                                              ; preds = %162
  br label %164

164:                                              ; preds = %163
  store i32 -14755, ptr %1, align 4, !tbaa !14
  br label %168

165:                                              ; No predecessors!
  br label %166

166:                                              ; preds = %165
  br label %167

167:                                              ; preds = %166, %155
  br label %168

168:                                              ; preds = %167, %164, %141, %129, %109, %86, %64, %42, %21
  %169 = getelementptr inbounds [1 x %struct.Aes], ptr %2, i64 0, i64 0
  call void @wc_AesFree(ptr noundef %169)
  %170 = getelementptr inbounds [1 x %struct.Aes], ptr %4, i64 0, i64 0
  call void @wc_AesFree(ptr noundef %170)
  %171 = load i32, ptr %1, align 4, !tbaa !14
  call void @llvm.lifetime.end.p0(i64 16, ptr %9) #10
  call void @llvm.lifetime.end.p0(i64 24, ptr %8) #10
  call void @llvm.lifetime.end.p0(i64 16, ptr %7) #10
  call void @llvm.lifetime.end.p0(i64 16, ptr %6) #10
  call void @llvm.lifetime.end.p0(i64 16, ptr %5) #10
  call void @llvm.lifetime.end.p0(i64 848, ptr %4) #10
  call void @llvm.lifetime.end.p0(i64 16, ptr %3) #10
  call void @llvm.lifetime.end.p0(i64 848, ptr %2) #10
  call void @llvm.lifetime.end.p0(i64 4, ptr %1) #10
  ret i32 %171
}