; Function Attrs: nounwind uwtable
define dso_local range(i32 -741585664, 1) i32 @aes192_test() local_unnamed_addr #0 {
  %1 = alloca [1 x %struct.Aes], align 16
  %2 = alloca [16 x i8], align 16
  %3 = alloca [1 x %struct.Aes], align 16
  %4 = alloca [16 x i8], align 16
  %5 = alloca [16 x i8], align 16
  %6 = alloca [24 x i8], align 16
  %7 = alloca [16 x i8], align 16
  call void @llvm.lifetime.start.p0(i64 848, ptr nonnull %1) #19
  call void @llvm.lifetime.start.p0(i64 16, ptr nonnull %2) #19
  call void @llvm.lifetime.start.p0(i64 848, ptr nonnull %3) #19
  call void @llvm.lifetime.start.p0(i64 16, ptr nonnull %4) #19
  call void @llvm.lifetime.start.p0(i64 16, ptr nonnull %5) #19
  call void @llvm.memcpy.p0.p0.i64(ptr noundef nonnull align 16 dereferenceable(16) %5, ptr noundef nonnull align 16 dereferenceable(16) @__const.aes256_test.msg, i64 16, i1 false)
  call void @llvm.lifetime.start.p0(i64 24, ptr nonnull %6) #19
  call void @llvm.memcpy.p0.p0.i64(ptr noundef nonnull align 16 dereferenceable(24) %6, ptr noundef nonnull align 16 dereferenceable(24) @__const.aes192_test.key, i64 24, i1 false)
  call void @llvm.lifetime.start.p0(i64 16, ptr nonnull %7) #19
  call void @llvm.memcpy.p0.p0.i64(ptr noundef nonnull align 16 dereferenceable(16) %7, ptr noundef nonnull align 16 dereferenceable(16) @__const.aes256_test.iv, i64 16, i1 false)
  call void @llvm.memset.p0.i64(ptr noundef nonnull align 16 dereferenceable(848) %1, i8 0, i64 848, i1 false)
  call void @llvm.memset.p0.i64(ptr noundef nonnull align 16 dereferenceable(848) %3, i8 0, i64 848, i1 false)
  %8 = call i32 @wc_AesInit(ptr noundef nonnull %1, ptr noundef null, i32 noundef -2) #19
  %.not = icmp eq i32 %8, 0
  br i1 %.not, label %13, label %9

9:                                                ; preds = %0
  %10 = sub nsw i32 0, %8
  %11 = and i32 %10, 2047
  %narrow.neg43 = mul nsw i32 %11, -100000
  %12 = add nsw i32 %narrow.neg43, -536885630
  br label %45

13:                                               ; preds = %0
  %14 = call i32 @wc_AesInit(ptr noundef nonnull %3, ptr noundef null, i32 noundef -2) #19
  %.not19 = icmp eq i32 %14, 0
  br i1 %.not19, label %19, label %15

15:                                               ; preds = %13
  %16 = sub nsw i32 0, %14
  %17 = and i32 %16, 2047
  %narrow.neg40 = mul nsw i32 %17, -100000
  %18 = add nsw i32 %narrow.neg40, -536885634
  br label %45

19:                                               ; preds = %13
  %20 = call i32 @wc_AesSetKey(ptr noundef nonnull %1, ptr noundef nonnull %6, i32 noundef 24, ptr noundef nonnull %7, i32 noundef 0) #19
  %.not20 = icmp eq i32 %20, 0
  br i1 %.not20, label %25, label %21

21:                                               ; preds = %19
  %22 = sub nsw i32 0, %20
  %23 = and i32 %22, 2047
  %narrow.neg37 = mul nsw i32 %23, -100000
  %24 = add nsw i32 %narrow.neg37, -536885640
  br label %45

25:                                               ; preds = %19
  %26 = call i32 @wc_AesSetKey(ptr noundef nonnull %3, ptr noundef nonnull %6, i32 noundef 24, ptr noundef nonnull %7, i32 noundef 1) #19
  %.not21 = icmp eq i32 %26, 0
  br i1 %.not21, label %31, label %27

27:                                               ; preds = %25
  %28 = sub nsw i32 0, %26
  %29 = and i32 %28, 2047
  %narrow.neg34 = mul nsw i32 %29, -100000
  %30 = add nsw i32 %narrow.neg34, -536885644
  br label %45

31:                                               ; preds = %25
  call void @llvm.memset.p0.i64(ptr noundef nonnull align 16 dereferenceable(16) %2, i8 0, i64 16, i1 false)
  %32 = call i32 @wc_AesCbcEncrypt(ptr noundef nonnull %1, ptr noundef nonnull %2, ptr noundef nonnull %5, i32 noundef 16) #19
  %.not22 = icmp eq i32 %32, 0
  br i1 %.not22, label %37, label %33

33:                                               ; preds = %31
  %34 = sub nsw i32 0, %32
  %35 = and i32 %34, 2047
  %narrow.neg31 = mul nsw i32 %35, -100000
  %36 = add nsw i32 %narrow.neg31, -536885653
  br label %45

37:                                               ; preds = %31
  %bcmp = call i32 @bcmp(ptr noundef nonnull dereferenceable(16) %2, ptr noundef nonnull dereferenceable(16) @__const.aes192_test.verify, i64 16)
  %.not23 = icmp eq i32 %bcmp, 0
  br i1 %.not23, label %38, label %45

38:                                               ; preds = %37
  call void @llvm.memset.p0.i64(ptr noundef nonnull align 16 dereferenceable(16) %4, i8 0, i64 16, i1 false)
  %39 = call i32 @wc_AesCbcDecrypt(ptr noundef nonnull %3, ptr noundef nonnull %4, ptr noundef nonnull %2, i32 noundef 16) #19
  %.not24 = icmp eq i32 %39, 0
  br i1 %.not24, label %44, label %40

40:                                               ; preds = %38
  %41 = sub nsw i32 0, %39
  %42 = and i32 %41, 2047
  %narrow.neg = mul nsw i32 %42, -100000
  %43 = add nsw i32 %narrow.neg, -536885664
  br label %45

44:                                               ; preds = %38
  %bcmp25 = call i32 @bcmp(ptr noundef nonnull dereferenceable(16) %4, ptr noundef nonnull dereferenceable(16) %5, i64 16)
  %.not26 = icmp eq i32 %bcmp25, 0
  %spec.select = select i1 %.not26, i32 0, i32 -14755
  br label %45

45:                                               ; preds = %44, %37, %40, %33, %27, %21, %15, %9
  %.0 = phi i32 [ %12, %9 ], [ %18, %15 ], [ %24, %21 ], [ %30, %27 ], [ %36, %33 ], [ %43, %40 ], [ -14743, %37 ], [ %spec.select, %44 ]
  call void @wc_AesFree(ptr noundef nonnull %1) #19
  call void @wc_AesFree(ptr noundef nonnull %3) #19
  call void @llvm.lifetime.end.p0(i64 16, ptr nonnull %7) #19
  call void @llvm.lifetime.end.p0(i64 24, ptr nonnull %6) #19
  call void @llvm.lifetime.end.p0(i64 16, ptr nonnull %5) #19
  call void @llvm.lifetime.end.p0(i64 16, ptr nonnull %4) #19
  call void @llvm.lifetime.end.p0(i64 848, ptr nonnull %3) #19
  call void @llvm.lifetime.end.p0(i64 16, ptr nonnull %2) #19
  call void @llvm.lifetime.end.p0(i64 848, ptr nonnull %1) #19
  ret i32 %.0
}